target datalayout = "e-m:e-p270:32:32-p271:32:32-p272:64:64-i64:64-i128:128-f80:128-n8:16:32:64-S128"
target triple = "x86_64-unknown-linux-gnu"

%struct.rsa_meth_st = type { %struct.openssl_method_common_st, ptr, ptr, ptr, ptr, ptr, ptr, ptr, ptr, ptr, ptr, ptr, ptr, ptr, i32, ptr, ptr, ptr }
%struct.openssl_method_common_st = type { i32, i8 }
%struct.rsa_st = type { ptr, ptr, ptr, ptr, ptr, ptr, ptr, ptr, ptr, ptr, %struct.crypto_ex_data_st, i32, i32, %union.crypto_mutex_st, ptr, ptr, ptr, i32, ptr, ptr }
%struct.crypto_ex_data_st = type { ptr }
%union.crypto_mutex_st = type { double, [48 x i8] }

; Function Attrs: nounwind uwtable
define hidden i32 @RSA_generate_key_ex(ptr noundef %rsa, i32 noundef %bits, ptr noundef %e_value, ptr noundef %cb) #0 {
entry:
  %retval = alloca i32, align 4
  %rsa.addr = alloca ptr, align 8
  %bits.addr = alloca i32, align 4
  %e_value.addr = alloca ptr, align 8
  %cb.addr = alloca ptr, align 8
  store ptr %rsa, ptr %rsa.addr, align 8
  store i32 %bits, ptr %bits.addr, align 4
  store ptr %e_value, ptr %e_value.addr, align 8
  store ptr %cb, ptr %cb.addr, align 8
  %0 = load ptr, ptr %rsa.addr, align 8
  %meth = getelementptr inbounds %struct.rsa_st, ptr %0, i32 0, i32 0
  %1 = load ptr, ptr %meth, align 8
  %keygen = getelementptr inbounds %struct.rsa_meth_st, ptr %1, i32 0, i32 15
  %2 = load ptr, ptr %keygen, align 8
  %tobool = icmp ne ptr %2, null
  br i1 %tobool, label %if.then, label %if.end

if.then:                                          ; preds = %entry
  %3 = load ptr, ptr %rsa.addr, align 8
  %meth1 = getelementptr inbounds %struct.rsa_st, ptr %3, i32 0, i32 0
  %4 = load ptr, ptr %meth1, align 8
  %keygen2 = getelementptr inbounds %struct.rsa_meth_st, ptr %4, i32 0, i32 15
  %5 = load ptr, ptr %keygen2, align 8
  %6 = load ptr, ptr %rsa.addr, align 8
  %7 = load i32, ptr %bits.addr, align 4
  %8 = load ptr, ptr %e_value.addr, align 8
  %9 = load ptr, ptr %cb.addr, align 8
  %call = call i32 %5(ptr noundef %6, i32 noundef %7, ptr noundef %8, ptr noundef %9)
  store i32 %call, ptr %retval, align 4
  br label %return

if.end:                                           ; preds = %entry
  %10 = load ptr, ptr %rsa.addr, align 8
  %11 = load i32, ptr %bits.addr, align 4
  %12 = load ptr, ptr %e_value.addr, align 8
  %13 = load ptr, ptr %cb.addr, align 8
  %call3 = call i32 @rsa_default_keygen(ptr noundef %10, i32 noundef %11, ptr noundef %12, ptr noundef %13)
  store i32 %call3, ptr %retval, align 4
  br label %return

return:                                           ; preds = %if.end, %if.then
  %14 = load i32, ptr %retval, align 4
  ret i32 %14
}